; Function Attrs: mustprogress nounwind uwtable
define internal void @"_ZNSt3__110__function6__funcIZN3tev11ImageViewer11insertImageENS_10shared_ptrINS2_5ImageEEEmbE3$_0NS_9allocatorIS7_EEFvvEED2Ev"(ptr nocapture noundef nonnull align 8 dereferenceable(32) %0) unnamed_addr #1 align 2 {
  store ptr getelementptr inbounds ({ [11 x ptr] }, ptr @"_ZTVNSt3__110__function6__funcIZN3tev11ImageViewer11insertImageENS_10shared_ptrINS2_5ImageEEEmbE3$_0NS_9allocatorIS7_EEFvvEEE", i64 0, i32 0, i64 2), ptr %0, align 8
  %2 = getelementptr inbounds i8, ptr %0, i64 24
  %.val = load ptr, ptr %2, align 8
  %.not.i.i.i.i.i = icmp eq ptr %.val, null
  br i1 %.not.i.i.i.i.i, label %"_ZNSt3__110__function12__alloc_funcIZN3tev11ImageViewer11insertImageENS_10shared_ptrINS2_5ImageEEEmbE3$_0NS_9allocatorIS7_EEFvvEED2Ev.exit", label %3

3:                                                ; preds = %1
  %4 = getelementptr inbounds i8, ptr %.val, i64 8
  %5 = atomicrmw add ptr %4, i64 -1 acq_rel, align 8
  %6 = icmp eq i64 %5, 0
  br i1 %6, label %7, label %"_ZNSt3__110__function12__alloc_funcIZN3tev11ImageViewer11insertImageENS_10shared_ptrINS2_5ImageEEEmbE3$_0NS_9allocatorIS7_EEFvvEED2Ev.exit"

7:                                                ; preds = %3
  %8 = load ptr, ptr %.val, align 8
  %9 = getelementptr inbounds i8, ptr %8, i64 16
  %10 = load ptr, ptr %9, align 8
  tail call void %10(ptr noundef nonnull align 8 dereferenceable(16) %.val) #39
  tail call void @_ZNSt3__119__shared_weak_count14__release_weakEv(ptr noundef nonnull align 8 dereferenceable(24) %.val) #39
  br label %"_ZNSt3__110__function12__alloc_funcIZN3tev11ImageViewer11insertImageENS_10shared_ptrINS2_5ImageEEEmbE3$_0NS_9allocatorIS7_EEFvvEED2Ev.exit"

"_ZNSt3__110__function12__alloc_funcIZN3tev11ImageViewer11insertImageENS_10shared_ptrINS2_5ImageEEEmbE3$_0NS_9allocatorIS7_EEFvvEED2Ev.exit": ; preds = %1, %3, %7
  ret void
}